target datalayout = "e-m:e-p270:32:32-p271:32:32-p272:64:64-i64:64-i128:128-f80:128-n8:16:32:64-S128"
target triple = "x86_64-pc-linux-gnu"

%struct._php_basic_globals = type { ptr, %struct._zend_array, ptr, ptr, i8, ptr, [256 x i8], i64, %struct._zend_fcall_info, %struct._zend_fcall_info_cache, ptr, %struct._zval_struct, %struct._zval_struct, i64, i64, i64, i64, ptr, ptr, %struct._php_stream_statbuf, %struct._php_stream_statbuf, ptr, i32, %struct.anon.7, %struct.anon.8, %struct.url_adapt_state_ex_t, %struct._zend_array, %struct.url_adapt_state_ex_t, %struct._zend_array, ptr, i32, i64 }
%struct._zend_fcall_info = type { i64, %struct._zval_struct, ptr, ptr, ptr, i32, ptr }
%struct._zend_fcall_info_cache = type { ptr, ptr, ptr, ptr, ptr }
%struct._zval_struct = type { %union._zend_value, %union.anon.3, %union.anon.6 }
%union._zend_value = type { i64 }
%union.anon.3 = type { i32 }
%union.anon.6 = type { i32 }
%struct._php_stream_statbuf = type { %struct.stat }
%struct.stat = type { i64, i64, i64, i32, i32, i32, i32, i64, i64, i64, i64, %struct.timespec, %struct.timespec, %struct.timespec, [3 x i64] }
%struct.timespec = type { i64, i64 }
%struct.anon.7 = type { ptr, i32 }
%struct.anon.8 = type { ptr, i32 }
%struct.url_adapt_state_ex_t = type { %struct.smart_str, %struct.smart_str, %struct.smart_str, %struct.smart_str, %struct.smart_str, %struct.smart_str, %struct.smart_str, i32, ptr, i32, i32, %struct.smart_str, i32, i32, ptr }
%struct.smart_str = type { ptr, i64 }
%struct._zend_array = type { %struct._zend_refcounted_h, %union.anon.0, i32, %union.anon.1, i32, i32, i32, i32, i64, ptr }
%struct._zend_refcounted_h = type { i32, %union.anon }
%union.anon = type { i32 }
%union.anon.0 = type { i32 }
%union.anon.1 = type { ptr }
%struct.php_file_globals = type { i32, i64, i8, i64, ptr, ptr, ptr, ptr, ptr, ptr, ptr, i32, %struct.hostent, ptr, i64 }
%struct.hostent = type { ptr, ptr, i32, i32, ptr }

@basic_globals = global %struct._php_basic_globals zeroinitializer, align 8
@empty_fcall_info = external constant %struct._zend_fcall_info, align 8
@empty_fcall_info_cache = external constant %struct._zend_fcall_info_cache, align 8
@file_globals = external global %struct.php_file_globals, align 8

; Function Attrs: nounwind uwtable
define hidden i32 @zm_activate_basic(i32 noundef %0, i32 noundef %1) #0 {
  %3 = alloca i32, align 4
  %4 = alloca i32, align 4
  store i32 %0, ptr %3, align 4
  store i32 %1, ptr %4, align 4
  call void @llvm.memset.p0.i64(ptr align 8 getelementptr inbounds (%struct._php_basic_globals, ptr @basic_globals, i32 0, i32 6), i8 0, i64 256, i1 false)
  store i32 0, ptr getelementptr inbounds (%struct._php_basic_globals, ptr @basic_globals, i32 0, i32 22), align 8
  call void @llvm.memset.p0.i64(ptr align 8 getelementptr inbounds (%struct._php_basic_globals, ptr @basic_globals, i32 0, i32 23), i8 0, i64 16, i1 false)
  call void @llvm.memset.p0.i64(ptr align 8 getelementptr inbounds (%struct._php_basic_globals, ptr @basic_globals, i32 0, i32 24), i8 0, i64 16, i1 false)
  store ptr null, ptr getelementptr inbounds (%struct._php_basic_globals, ptr @basic_globals, i32 0, i32 2), align 8
  store ptr null, ptr getelementptr inbounds (%struct._php_basic_globals, ptr @basic_globals, i32 0, i32 5), align 8
  store ptr null, ptr getelementptr inbounds (%struct._php_basic_globals, ptr @basic_globals, i32 0, i32 3), align 8
  store i8 0, ptr getelementptr inbounds (%struct._php_basic_globals, ptr @basic_globals, i32 0, i32 4), align 8
  call void @llvm.memcpy.p0.p0.i64(ptr align 8 getelementptr inbounds (%struct._php_basic_globals, ptr @basic_globals, i32 0, i32 8), ptr align 8 @empty_fcall_info, i64 64, i1 false)
  call void @llvm.memcpy.p0.p0.i64(ptr align 8 getelementptr inbounds (%struct._php_basic_globals, ptr @basic_globals, i32 0, i32 9), ptr align 8 @empty_fcall_info_cache, i64 40, i1 false)
  store i64 -1, ptr getelementptr inbounds (%struct._php_basic_globals, ptr @basic_globals, i32 0, i32 13), align 8
  store i64 -1, ptr getelementptr inbounds (%struct._php_basic_globals, ptr @basic_globals, i32 0, i32 14), align 8
  store i64 -1, ptr getelementptr inbounds (%struct._php_basic_globals, ptr @basic_globals, i32 0, i32 15), align 8
  store i64 -1, ptr getelementptr inbounds (%struct._php_basic_globals, ptr @basic_globals, i32 0, i32 16), align 8
  call void @_zend_hash_init(ptr noundef getelementptr inbounds (%struct._php_basic_globals, ptr @basic_globals, i32 0, i32 1), i32 noundef 1, ptr noundef @php_putenv_destructor, i1 noundef zeroext false)
  store ptr null, ptr @basic_globals, align 8
  %5 = load i32, ptr %3, align 4
  %6 = load i32, ptr %4, align 4
  %7 = call i32 @zm_activate_filestat(i32 noundef %5, i32 noundef %6)
  %8 = load i32, ptr %3, align 4
  %9 = load i32, ptr %4, align 4
  %10 = call i32 @zm_activate_dir(i32 noundef %8, i32 noundef %9)
  %11 = load i32, ptr %3, align 4
  %12 = load i32, ptr %4, align 4
  %13 = call i32 @zm_activate_url_scanner_ex(i32 noundef %11, i32 noundef %12)
  br label %14

14:                                               ; preds = %2
  store i32 0, ptr getelementptr inbounds (%struct._php_basic_globals, ptr @basic_globals, i32 0, i32 12, i32 1), align 8
  br label %15

15:                                               ; preds = %14
  store ptr null, ptr getelementptr inbounds (%struct.php_file_globals, ptr @file_globals, i32 0, i32 7), align 8
  store ptr null, ptr getelementptr inbounds (%struct.php_file_globals, ptr @file_globals, i32 0, i32 8), align 8
  store ptr null, ptr getelementptr inbounds (%struct.php_file_globals, ptr @file_globals, i32 0, i32 9), align 8
  ret i32 0
}