; Function Attrs: nounwind uwtable
define hidden noundef i32 @zm_activate_basic(i32 noundef %0, i32 noundef %1) #0 {
  store i32 0, ptr getelementptr inbounds (%struct._php_basic_globals, ptr @basic_globals, i64 0, i32 22), align 8
  tail call void @llvm.memset.p0.i64(ptr noundef nonnull align 8 dereferenceable(17) getelementptr inbounds (%struct._php_basic_globals, ptr @basic_globals, i64 0, i32 2), i8 0, i64 17, i1 false)
  tail call void @llvm.memset.p0.i64(ptr noundef nonnull align 8 dereferenceable(264) getelementptr inbounds (%struct._php_basic_globals, ptr @basic_globals, i64 0, i32 5), i8 0, i64 264, i1 false)
  tail call void @llvm.memset.p0.i64(ptr noundef nonnull align 8 dereferenceable(32) getelementptr inbounds (%struct._php_basic_globals, ptr @basic_globals, i64 0, i32 23), i8 0, i64 32, i1 false)
  tail call void @llvm.memcpy.p0.p0.i64(ptr noundef nonnull align 8 dereferenceable(64) getelementptr inbounds (%struct._php_basic_globals, ptr @basic_globals, i64 0, i32 8), ptr noundef nonnull align 8 dereferenceable(64) @empty_fcall_info, i64 64, i1 false)
  tail call void @llvm.memcpy.p0.p0.i64(ptr noundef nonnull align 8 dereferenceable(40) getelementptr inbounds (%struct._php_basic_globals, ptr @basic_globals, i64 0, i32 9), ptr noundef nonnull align 8 dereferenceable(40) @empty_fcall_info_cache, i64 40, i1 false)
  tail call void @llvm.memset.p0.i64(ptr noundef nonnull align 8 dereferenceable(32) getelementptr inbounds (%struct._php_basic_globals, ptr @basic_globals, i64 0, i32 13), i8 -1, i64 32, i1 false)
  tail call void @_zend_hash_init(ptr noundef nonnull getelementptr inbounds (%struct._php_basic_globals, ptr @basic_globals, i64 0, i32 1), i32 noundef 1, ptr noundef nonnull @php_putenv_destructor, i1 noundef zeroext false) #18
  store ptr null, ptr @basic_globals, align 8
  %3 = tail call i32 @zm_activate_filestat(i32 noundef %0, i32 noundef %1) #18
  %4 = tail call i32 @zm_activate_dir(i32 noundef %0, i32 noundef %1) #18
  %5 = tail call i32 @zm_activate_url_scanner_ex(i32 noundef %0, i32 noundef %1) #18
  store i32 0, ptr getelementptr inbounds (%struct._php_basic_globals, ptr @basic_globals, i64 0, i32 12, i32 1), align 8
  tail call void @llvm.memset.p0.i64(ptr noundef nonnull align 8 dereferenceable(24) getelementptr inbounds (%struct.php_file_globals, ptr @file_globals, i64 0, i32 7), i8 0, i64 24, i1 false)
  ret i32 0
}